target datalayout = "e-m:e-p270:32:32-p271:32:32-p272:64:64-i64:64-i128:128-f80:128-n8:16:32:64-S128"
target triple = "x86_64-pc-linux-gnu"

%struct.dbd_usage_msg_t = type { i64, ptr, i64 }

@.str.1 = private unnamed_addr constant [18 x i8] c"Unknown pack type\00", align 1

; Function Attrs: nounwind uwtable
define dso_local void @slurmdbd_pack_usage_msg(ptr noundef %0, i16 noundef zeroext %1, i32 noundef %2, ptr noundef %3) #0 {
  %5 = alloca ptr, align 8
  %6 = alloca i16, align 2
  %7 = alloca i32, align 4
  %8 = alloca ptr, align 8
  %9 = alloca ptr, align 8
  store ptr %0, ptr %5, align 8
  store i16 %1, ptr %6, align 2
  store i32 %2, ptr %7, align 4
  store ptr %3, ptr %8, align 8
  call void @llvm.lifetime.start.p0(i64 8, ptr %9) #5
  %10 = load i32, ptr %7, align 4
  switch i32 %10, label %14 [
    i32 1505, label %11
    i32 1506, label %11
    i32 1411, label %11
    i32 1418, label %11
    i32 1413, label %12
    i32 1420, label %12
    i32 1457, label %13
    i32 1458, label %13
  ]

11:                                               ; preds = %4, %4, %4, %4
  store ptr @slurmdb_pack_assoc_rec, ptr %9, align 8
  br label %15

12:                                               ; preds = %4, %4
  store ptr @slurmdb_pack_cluster_rec, ptr %9, align 8
  br label %15

13:                                               ; preds = %4, %4
  store ptr @slurmdb_pack_wckey_rec, ptr %9, align 8
  br label %15

14:                                               ; preds = %4
  call void (ptr, ...) @fatal(ptr noundef @.str.1) #7
  unreachable

15:                                               ; preds = %13, %12, %11
  %16 = load ptr, ptr %9, align 8
  %17 = load ptr, ptr %5, align 8
  %18 = getelementptr inbounds nuw %struct.dbd_usage_msg_t, ptr %17, i32 0, i32 1
  %19 = load ptr, ptr %18, align 8
  %20 = load i16, ptr %6, align 2
  %21 = load ptr, ptr %8, align 8
  call void %16(ptr noundef %19, i16 noundef zeroext %20, ptr noundef %21)
  %22 = load ptr, ptr %5, align 8
  %23 = getelementptr inbounds nuw %struct.dbd_usage_msg_t, ptr %22, i32 0, i32 2
  %24 = load i64, ptr %23, align 8
  %25 = load ptr, ptr %8, align 8
  call void @pack_time(i64 noundef %24, ptr noundef %25)
  %26 = load ptr, ptr %5, align 8
  %27 = getelementptr inbounds nuw %struct.dbd_usage_msg_t, ptr %26, i32 0, i32 0
  %28 = load i64, ptr %27, align 8
  %29 = load ptr, ptr %8, align 8
  call void @pack_time(i64 noundef %28, ptr noundef %29)
  call void @llvm.lifetime.end.p0(i64 8, ptr %9) #5
  ret void
}