; Function Attrs: nounwind uwtable
define dso_local void @slurmdbd_pack_usage_msg(ptr noundef readonly captures(none) %0, i16 noundef zeroext %1, i32 noundef %2, ptr noundef %3) local_unnamed_addr #0 {
  switch i32 %2, label %7 [
    i32 1505, label %8
    i32 1506, label %8
    i32 1411, label %8
    i32 1418, label %8
    i32 1413, label %5
    i32 1420, label %5
    i32 1457, label %6
    i32 1458, label %6
  ]

5:                                                ; preds = %4, %4
  br label %8

6:                                                ; preds = %4, %4
  br label %8

7:                                                ; preds = %4
  tail call void (ptr, ...) @fatal(ptr noundef nonnull @.str.1) #6
  unreachable

8:                                                ; preds = %4, %4, %4, %4, %6, %5
  %.0 = phi ptr [ @slurmdb_pack_wckey_rec, %6 ], [ @slurmdb_pack_cluster_rec, %5 ], [ @slurmdb_pack_assoc_rec, %4 ], [ @slurmdb_pack_assoc_rec, %4 ], [ @slurmdb_pack_assoc_rec, %4 ], [ @slurmdb_pack_assoc_rec, %4 ]
  %9 = getelementptr inbounds nuw i8, ptr %0, i64 8
  %10 = load ptr, ptr %9, align 8
  tail call void %.0(ptr noundef %10, i16 noundef zeroext %1, ptr noundef %3) #5, !callees !8
  %11 = getelementptr inbounds nuw i8, ptr %0, i64 16
  %12 = load i64, ptr %11, align 8
  tail call void @pack_time(i64 noundef %12, ptr noundef %3) #5
  %13 = load i64, ptr %0, align 8
  tail call void @pack_time(i64 noundef %13, ptr noundef %3) #5
  ret void
}